target datalayout = "e-m:e-p270:32:32-p271:32:32-p272:64:64-i64:64-i128:128-f80:128-n8:16:32:64-S128"
target triple = "x86_64-pc-linux-gnu"

%struct.H5O_stab_t = type { i64, i64 }
%struct.H5O_loc_t = type { ptr, i64, i8 }

@.str = private unnamed_addr constant [101 x i8] c"generated/home/dtcxzyw/WorkSpace/Projects/compilers/llvm-opt-benchmark/bench/hdf5/hdf5/src/H5Gstab.c\00", align 1
@H5E_SYM_g = external global i64, align 8
@H5E_CANTINIT_g = external global i64, align 8
@__func__.H5G__stab_insert = private unnamed_addr constant [17 x i8] c"H5G__stab_insert\00", align 1
@H5E_BADMESG_g = external global i64, align 8
@.str.10 = private unnamed_addr constant [19 x i8] c"not a symbol table\00", align 1
@H5E_DATATYPE_g = external global i64, align 8
@.str.11 = private unnamed_addr constant [26 x i8] c"unable to insert the link\00", align 1

; Function Attrs: nounwind uwtable
define i32 @H5G__stab_insert(ptr noundef %0, ptr noundef %1, i32 noundef %2, ptr noundef %3) #0 {
  %5 = alloca ptr, align 8
  %6 = alloca ptr, align 8
  %7 = alloca i32, align 4
  %8 = alloca ptr, align 8
  %9 = alloca %struct.H5O_stab_t, align 8
  %10 = alloca i32, align 4
  %11 = alloca i8, align 1
  store ptr %0, ptr %5, align 8
  store ptr %1, ptr %6, align 8
  store i32 %2, ptr %7, align 4
  store ptr %3, ptr %8, align 8
  store i32 0, ptr %10, align 4
  store i8 0, ptr %11, align 1
  %12 = load ptr, ptr %5, align 8
  %13 = call ptr @H5O_msg_read(ptr noundef %12, i32 noundef 17, ptr noundef %9)
  %14 = icmp eq ptr null, %13
  br i1 %14, label %15, label %30

15:                                               ; preds = %4
  br label %16

16:                                               ; preds = %15
  br label %17

17:                                               ; preds = %16
  br label %18

18:                                               ; preds = %17
  %19 = load i64, ptr @H5E_SYM_g, align 8
  %20 = load i64, ptr @H5E_BADMESG_g, align 8
  %21 = call i32 (ptr, ptr, i32, i64, i64, ptr, ...) @H5E_printf_stack(ptr noundef @.str, ptr noundef @__func__.H5G__stab_insert, i32 noundef 291, i64 noundef %19, i64 noundef %20, ptr noundef @.str.10)
  br label %22

22:                                               ; preds = %18
  store i8 1, ptr %11, align 1
  %23 = load i8, ptr %11, align 1
  %24 = trunc i8 %23 to i1
  %25 = zext i1 %24 to i8
  store i8 %25, ptr %11, align 1
  br label %26

26:                                               ; preds = %22
  br label %27

27:                                               ; preds = %26
  store i32 -1, ptr %10, align 4
  br label %55

28:                                               ; No predecessors!
  br label %29

29:                                               ; preds = %28
  br label %30

30:                                               ; preds = %29, %4
  %31 = load ptr, ptr %5, align 8
  %32 = getelementptr inbounds %struct.H5O_loc_t, ptr %31, i32 0, i32 0
  %33 = load ptr, ptr %32, align 8
  %34 = load ptr, ptr %6, align 8
  %35 = load i32, ptr %7, align 4
  %36 = load ptr, ptr %8, align 8
  %37 = call i32 @H5G__stab_insert_real(ptr noundef %33, ptr noundef %9, ptr noundef %34, i32 noundef %35, ptr noundef %36)
  %38 = icmp slt i32 %37, 0
  br i1 %38, label %39, label %54

39:                                               ; preds = %30
  br label %40

40:                                               ; preds = %39
  br label %41

41:                                               ; preds = %40
  br label %42

42:                                               ; preds = %41
  %43 = load i64, ptr @H5E_DATATYPE_g, align 8
  %44 = load i64, ptr @H5E_CANTINIT_g, align 8
  %45 = call i32 (ptr, ptr, i32, i64, i64, ptr, ...) @H5E_printf_stack(ptr noundef @.str, ptr noundef @__func__.H5G__stab_insert, i32 noundef 294, i64 noundef %43, i64 noundef %44, ptr noundef @.str.11)
  br label %46

46:                                               ; preds = %42
  store i8 1, ptr %11, align 1
  %47 = load i8, ptr %11, align 1
  %48 = trunc i8 %47 to i1
  %49 = zext i1 %48 to i8
  store i8 %49, ptr %11, align 1
  br label %50

50:                                               ; preds = %46
  br label %51

51:                                               ; preds = %50
  store i32 -1, ptr %10, align 4
  br label %55

52:                                               ; No predecessors!
  br label %53

53:                                               ; preds = %52
  br label %54

54:                                               ; preds = %53, %30
  br label %55

55:                                               ; preds = %54, %51, %27
  %56 = load i32, ptr %10, align 4
  ret i32 %56
}