; Function Attrs: nounwind uwtable
define range(i32 -1, 1) i32 @H5G__stab_insert(ptr noundef %0, ptr noundef %1, i32 noundef %2, ptr noundef %3) local_unnamed_addr #0 {
  %5 = alloca %struct.H5O_stab_t, align 8
  %6 = call ptr @H5O_msg_read(ptr noundef %0, i32 noundef 17, ptr noundef nonnull %5) #6
  %7 = icmp eq ptr %6, null
  br i1 %7, label %8, label %12

8:                                                ; preds = %4
  %9 = load i64, ptr @H5E_SYM_g, align 8
  %10 = load i64, ptr @H5E_BADMESG_g, align 8
  %11 = call i32 (ptr, ptr, i32, i64, i64, ptr, ...) @H5E_printf_stack(ptr noundef nonnull @.str, ptr noundef nonnull @__func__.H5G__stab_insert, i32 noundef 291, i64 noundef %9, i64 noundef %10, ptr noundef nonnull @.str.10) #6
  br label %20

12:                                               ; preds = %4
  %13 = load ptr, ptr %0, align 8
  %14 = call i32 @H5G__stab_insert_real(ptr noundef %13, ptr noundef nonnull %5, ptr noundef %1, i32 noundef %2, ptr noundef %3)
  %15 = icmp slt i32 %14, 0
  br i1 %15, label %16, label %20

16:                                               ; preds = %12
  %17 = load i64, ptr @H5E_DATATYPE_g, align 8
  %18 = load i64, ptr @H5E_CANTINIT_g, align 8
  %19 = call i32 (ptr, ptr, i32, i64, i64, ptr, ...) @H5E_printf_stack(ptr noundef nonnull @.str, ptr noundef nonnull @__func__.H5G__stab_insert, i32 noundef 294, i64 noundef %17, i64 noundef %18, ptr noundef nonnull @.str.11) #6
  br label %20

20:                                               ; preds = %12, %16, %8
  %.0 = phi i32 [ -1, %8 ], [ -1, %16 ], [ 0, %12 ]
  ret i32 %.0
}